target datalayout = "e-m:e-p270:32:32-p271:32:32-p272:64:64-i64:64-i128:128-f80:128-n8:16:32:64-S128"
target triple = "x86_64-pc-linux-gnu"

%struct.walker_data = type { ptr, i32, ptr }
%struct.alt_base = type { ptr, i32, ptr, ptr }
%struct.walker = type { ptr, ptr, ptr, ptr, ptr, i32, i32, i32, i32 }

; Function Attrs: nounwind uwtable
define dso_local ptr @get_http_walker(ptr noundef %0) #0 {
  %2 = alloca ptr, align 8
  %3 = alloca ptr, align 8
  %4 = alloca ptr, align 8
  %5 = alloca ptr, align 8
  store ptr %0, ptr %2, align 8, !tbaa !4
  call void @llvm.lifetime.start.p0(i64 8, ptr %3) #8
  call void @llvm.lifetime.start.p0(i64 8, ptr %4) #8
  %6 = call ptr @xmalloc(i64 noundef 24)
  store ptr %6, ptr %4, align 8, !tbaa !9
  call void @llvm.lifetime.start.p0(i64 8, ptr %5) #8
  %7 = call ptr @xmalloc(i64 noundef 56)
  store ptr %7, ptr %5, align 8, !tbaa !11
  %8 = call ptr @xmalloc(i64 noundef 32)
  %9 = load ptr, ptr %4, align 8, !tbaa !9
  %10 = getelementptr inbounds nuw %struct.walker_data, ptr %9, i32 0, i32 2
  store ptr %8, ptr %10, align 8, !tbaa !13
  %11 = load ptr, ptr %2, align 8, !tbaa !4
  %12 = call ptr @xstrdup(ptr noundef %11)
  %13 = load ptr, ptr %4, align 8, !tbaa !9
  %14 = getelementptr inbounds nuw %struct.walker_data, ptr %13, i32 0, i32 2
  %15 = load ptr, ptr %14, align 8, !tbaa !13
  %16 = getelementptr inbounds nuw %struct.alt_base, ptr %15, i32 0, i32 0
  store ptr %12, ptr %16, align 8, !tbaa !17
  %17 = load ptr, ptr %4, align 8, !tbaa !9
  %18 = getelementptr inbounds nuw %struct.walker_data, ptr %17, i32 0, i32 2
  %19 = load ptr, ptr %18, align 8, !tbaa !13
  %20 = getelementptr inbounds nuw %struct.alt_base, ptr %19, i32 0, i32 0
  %21 = load ptr, ptr %20, align 8, !tbaa !17
  %22 = load ptr, ptr %4, align 8, !tbaa !9
  %23 = getelementptr inbounds nuw %struct.walker_data, ptr %22, i32 0, i32 2
  %24 = load ptr, ptr %23, align 8, !tbaa !13
  %25 = getelementptr inbounds nuw %struct.alt_base, ptr %24, i32 0, i32 0
  %26 = load ptr, ptr %25, align 8, !tbaa !17
  %27 = call i64 @strlen(ptr noundef %26) #9
  %28 = getelementptr inbounds nuw i8, ptr %21, i64 %27
  %29 = getelementptr inbounds i8, ptr %28, i64 -1
  store ptr %29, ptr %3, align 8, !tbaa !4
  br label %30

30:                                               ; preds = %37, %1
  %31 = load ptr, ptr %3, align 8, !tbaa !4
  %32 = load i8, ptr %31, align 1, !tbaa !20
  %33 = sext i8 %32 to i32
  %34 = icmp eq i32 %33, 47
  br i1 %34, label %35, label %40

35:                                               ; preds = %30
  %36 = load ptr, ptr %3, align 8, !tbaa !4
  store i8 0, ptr %36, align 1, !tbaa !20
  br label %37

37:                                               ; preds = %35
  %38 = load ptr, ptr %3, align 8, !tbaa !4
  %39 = getelementptr inbounds i8, ptr %38, i32 -1
  store ptr %39, ptr %3, align 8, !tbaa !4
  br label %30, !llvm.loop !21

40:                                               ; preds = %30
  %41 = load ptr, ptr %4, align 8, !tbaa !9
  %42 = getelementptr inbounds nuw %struct.walker_data, ptr %41, i32 0, i32 2
  %43 = load ptr, ptr %42, align 8, !tbaa !13
  %44 = getelementptr inbounds nuw %struct.alt_base, ptr %43, i32 0, i32 1
  store i32 0, ptr %44, align 8, !tbaa !23
  %45 = load ptr, ptr %4, align 8, !tbaa !9
  %46 = getelementptr inbounds nuw %struct.walker_data, ptr %45, i32 0, i32 2
  %47 = load ptr, ptr %46, align 8, !tbaa !13
  %48 = getelementptr inbounds nuw %struct.alt_base, ptr %47, i32 0, i32 2
  store ptr null, ptr %48, align 8, !tbaa !24
  %49 = load ptr, ptr %4, align 8, !tbaa !9
  %50 = getelementptr inbounds nuw %struct.walker_data, ptr %49, i32 0, i32 2
  %51 = load ptr, ptr %50, align 8, !tbaa !13
  %52 = getelementptr inbounds nuw %struct.alt_base, ptr %51, i32 0, i32 3
  store ptr null, ptr %52, align 8, !tbaa !25
  %53 = load ptr, ptr %4, align 8, !tbaa !9
  %54 = getelementptr inbounds nuw %struct.walker_data, ptr %53, i32 0, i32 1
  store i32 -1, ptr %54, align 8, !tbaa !26
  %55 = load ptr, ptr %5, align 8, !tbaa !11
  %56 = getelementptr inbounds nuw %struct.walker, ptr %55, i32 0, i32 8
  store i32 0, ptr %56, align 4, !tbaa !27
  %57 = load ptr, ptr %5, align 8, !tbaa !11
  %58 = getelementptr inbounds nuw %struct.walker, ptr %57, i32 0, i32 3
  store ptr @fetch, ptr %58, align 8, !tbaa !29
  %59 = load ptr, ptr %5, align 8, !tbaa !11
  %60 = getelementptr inbounds nuw %struct.walker, ptr %59, i32 0, i32 1
  store ptr @fetch_ref, ptr %60, align 8, !tbaa !30
  %61 = load ptr, ptr %5, align 8, !tbaa !11
  %62 = getelementptr inbounds nuw %struct.walker, ptr %61, i32 0, i32 2
  store ptr @prefetch, ptr %62, align 8, !tbaa !31
  %63 = load ptr, ptr %5, align 8, !tbaa !11
  %64 = getelementptr inbounds nuw %struct.walker, ptr %63, i32 0, i32 4
  store ptr @cleanup, ptr %64, align 8, !tbaa !32
  %65 = load ptr, ptr %4, align 8, !tbaa !9
  %66 = load ptr, ptr %5, align 8, !tbaa !11
  %67 = getelementptr inbounds nuw %struct.walker, ptr %66, i32 0, i32 0
  store ptr %65, ptr %67, align 8, !tbaa !33
  call void @add_fill_function(ptr noundef null, ptr noundef @fill_active_slot)
  %68 = load ptr, ptr %5, align 8, !tbaa !11
  call void @llvm.lifetime.end.p0(i64 8, ptr %5) #8
  call void @llvm.lifetime.end.p0(i64 8, ptr %4) #8
  call void @llvm.lifetime.end.p0(i64 8, ptr %3) #8
  ret ptr %68
}