; Function Attrs: nounwind uwtable
define dso_local ptr @get_http_walker(ptr noundef %0) local_unnamed_addr #0 {
  %2 = tail call ptr @xmalloc(i64 noundef 24) #11
  %3 = tail call ptr @xmalloc(i64 noundef 56) #11
  %4 = tail call ptr @xmalloc(i64 noundef 32) #11
  %5 = getelementptr inbounds nuw i8, ptr %2, i64 16
  store ptr %4, ptr %5, align 8, !tbaa !4
  %6 = tail call ptr @xstrdup(ptr noundef %0) #11
  %7 = load ptr, ptr %5, align 8, !tbaa !4
  store ptr %6, ptr %7, align 8, !tbaa !12
  %8 = tail call i64 @strlen(ptr noundef nonnull dereferenceable(1) %6) #12
  %9 = getelementptr inbounds nuw i8, ptr %6, i64 %8
  %.020 = getelementptr inbounds i8, ptr %9, i64 -1
  %10 = load i8, ptr %.020, align 1, !tbaa !15
  %11 = icmp eq i8 %10, 47
  br i1 %11, label %.lr.ph, label %._crit_edge

.lr.ph:                                           ; preds = %1, %.lr.ph
  %.021 = phi ptr [ %.0, %.lr.ph ], [ %.020, %1 ]
  store i8 0, ptr %.021, align 1, !tbaa !15
  %.0 = getelementptr inbounds i8, ptr %.021, i64 -1
  %12 = load i8, ptr %.0, align 1, !tbaa !15
  %13 = icmp eq i8 %12, 47
  br i1 %13, label %.lr.ph, label %._crit_edge.loopexit, !llvm.loop !16

._crit_edge.loopexit:                             ; preds = %.lr.ph
  %.pre = load ptr, ptr %5, align 8, !tbaa !4
  br label %._crit_edge

._crit_edge:                                      ; preds = %._crit_edge.loopexit, %1
  %14 = phi ptr [ %.pre, %._crit_edge.loopexit ], [ %7, %1 ]
  %15 = getelementptr inbounds nuw i8, ptr %14, i64 8
  store i32 0, ptr %15, align 8, !tbaa !18
  %16 = getelementptr inbounds nuw i8, ptr %14, i64 16
  %17 = getelementptr inbounds nuw i8, ptr %2, i64 8
  tail call void @llvm.memset.p0.i64(ptr noundef nonnull align 8 dereferenceable(16) %16, i8 0, i64 16, i1 false)
  store i32 -1, ptr %17, align 8, !tbaa !19
  %18 = getelementptr inbounds nuw i8, ptr %3, i64 52
  store i32 0, ptr %18, align 4, !tbaa !20
  %19 = getelementptr inbounds nuw i8, ptr %3, i64 24
  store ptr @fetch, ptr %19, align 8, !tbaa !22
  %20 = getelementptr inbounds nuw i8, ptr %3, i64 8
  store ptr @fetch_ref, ptr %20, align 8, !tbaa !23
  %21 = getelementptr inbounds nuw i8, ptr %3, i64 16
  store ptr @prefetch, ptr %21, align 8, !tbaa !24
  %22 = getelementptr inbounds nuw i8, ptr %3, i64 32
  store ptr @cleanup, ptr %22, align 8, !tbaa !25
  store ptr %2, ptr %3, align 8, !tbaa !26
  tail call void @add_fill_function(ptr noundef null, ptr noundef nonnull @fill_active_slot) #11
  ret ptr %3
}